; Function Attrs: mustprogress uwtable
define dso_local void @_ZN4pbrt22FormattingParserTarget9ObjectEndENS_7FileLocE(ptr noundef nonnull align 8 dereferenceable(216) %this, ptr nocapture noundef readnone byval(%"struct.pbrt::FileLoc") align 8 %loc) unnamed_addr #3 align 2 personality ptr @__gxx_personality_v0 {
entry:
  %s.i = alloca %"class.std::__cxx11::basic_string", align 8
  %ref.tmp = alloca %"class.std::__cxx11::basic_string", align 8
  call void @_ZNK4pbrt22FormattingParserTarget6indentB5cxx11Ei(ptr nonnull sret(%"class.std::__cxx11::basic_string") align 8 %ref.tmp, ptr noundef nonnull align 8 dereferenceable(216) %this, i32 noundef 0)
  call void @llvm.lifetime.start.p0(i64 32, ptr nonnull %s.i)
  call void @_ZNSt7__cxx1112basic_stringIcSt11char_traitsIcESaIcEEC1Ev(ptr noundef nonnull align 8 dereferenceable(32) %s.i) #32
  invoke void @_ZN4pbrt6detail21stringPrintfRecursiveINSt7__cxx1112basic_stringIcSt11char_traitsIcESaIcEEEJEEEvPS7_PKcOT_DpOT0_(ptr noundef nonnull %s.i, ptr noundef nonnull @.str.280, ptr noundef nonnull align 8 dereferenceable(32) %ref.tmp)
          to label %invoke.cont unwind label %lpad.i.i

lpad.i.i:                                         ; preds = %entry
  %0 = landingpad { ptr, i32 }
          cleanup
  call void @_ZNSt7__cxx1112basic_stringIcSt11char_traitsIcESaIcEED1Ev(ptr noundef nonnull align 8 dereferenceable(32) %s.i) #32
  call void @_ZNSt7__cxx1112basic_stringIcSt11char_traitsIcESaIcEED1Ev(ptr noundef nonnull align 8 dereferenceable(32) %ref.tmp) #32
  resume { ptr, i32 } %0

invoke.cont:                                      ; preds = %entry
  %call.i = call noundef ptr @_ZNKSt7__cxx1112basic_stringIcSt11char_traitsIcESaIcEE5c_strEv(ptr noundef nonnull align 8 dereferenceable(32) %s.i) #32
  %1 = load ptr, ptr @stdout, align 8
  %call1.i = call i32 @fputs(ptr noundef %call.i, ptr noundef %1)
  call void @_ZNSt7__cxx1112basic_stringIcSt11char_traitsIcESaIcEED1Ev(ptr noundef nonnull align 8 dereferenceable(32) %s.i) #32
  call void @llvm.lifetime.end.p0(i64 32, ptr nonnull %s.i)
  call void @_ZNSt7__cxx1112basic_stringIcSt11char_traitsIcESaIcEED1Ev(ptr noundef nonnull align 8 dereferenceable(32) %ref.tmp) #32
  ret void
}